target datalayout = "e-m:e-p270:32:32-p271:32:32-p272:64:64-i64:64-i128:128-f80:128-n8:16:32:64-S128"
target triple = "x86_64-unknown-linux-gnu"

%class.btCollisionWorldImporter = type { ptr, ptr, i32, [4 x i8], %class.btAlignedObjectArray, %class.btAlignedObjectArray.0, %class.btAlignedObjectArray.4, %class.btAlignedObjectArray.8, %class.btAlignedObjectArray.12, %class.btAlignedObjectArray.16, %class.btAlignedObjectArray.0, %class.btAlignedObjectArray.20, %class.btAlignedObjectArray.24, %class.btAlignedObjectArray.28, %class.btAlignedObjectArray.32, %class.btAlignedObjectArray.36, %class.btAlignedObjectArray.40, %class.btHashMap, %class.btHashMap.52, %class.btHashMap.53, %class.btHashMap.58, %class.btHashMap.59, %class.btHashMap.64, %class.btHashMap.65 }
%class.btAlignedObjectArray = type <{ %class.btAlignedAllocator, [3 x i8], i32, i32, [4 x i8], ptr, i8, [7 x i8] }>
%class.btAlignedAllocator = type { i8 }
%class.btAlignedObjectArray.4 = type <{ %class.btAlignedAllocator.5, [3 x i8], i32, i32, [4 x i8], ptr, i8, [7 x i8] }>
%class.btAlignedAllocator.5 = type { i8 }
%class.btAlignedObjectArray.8 = type <{ %class.btAlignedAllocator.9, [3 x i8], i32, i32, [4 x i8], ptr, i8, [7 x i8] }>
%class.btAlignedAllocator.9 = type { i8 }
%class.btAlignedObjectArray.12 = type <{ %class.btAlignedAllocator.13, [3 x i8], i32, i32, [4 x i8], ptr, i8, [7 x i8] }>
%class.btAlignedAllocator.13 = type { i8 }
%class.btAlignedObjectArray.16 = type <{ %class.btAlignedAllocator.17, [3 x i8], i32, i32, [4 x i8], ptr, i8, [7 x i8] }>
%class.btAlignedAllocator.17 = type { i8 }
%class.btAlignedObjectArray.0 = type <{ %class.btAlignedAllocator.1, [3 x i8], i32, i32, [4 x i8], ptr, i8, [7 x i8] }>
%class.btAlignedAllocator.1 = type { i8 }
%class.btAlignedObjectArray.20 = type <{ %class.btAlignedAllocator.21, [3 x i8], i32, i32, [4 x i8], ptr, i8, [7 x i8] }>
%class.btAlignedAllocator.21 = type { i8 }
%class.btAlignedObjectArray.24 = type <{ %class.btAlignedAllocator.25, [3 x i8], i32, i32, [4 x i8], ptr, i8, [7 x i8] }>
%class.btAlignedAllocator.25 = type { i8 }
%class.btAlignedObjectArray.28 = type <{ %class.btAlignedAllocator.29, [3 x i8], i32, i32, [4 x i8], ptr, i8, [7 x i8] }>
%class.btAlignedAllocator.29 = type { i8 }
%class.btAlignedObjectArray.32 = type <{ %class.btAlignedAllocator.33, [3 x i8], i32, i32, [4 x i8], ptr, i8, [7 x i8] }>
%class.btAlignedAllocator.33 = type { i8 }
%class.btAlignedObjectArray.36 = type <{ %class.btAlignedAllocator.37, [3 x i8], i32, i32, [4 x i8], ptr, i8, [7 x i8] }>
%class.btAlignedAllocator.37 = type { i8 }
%class.btAlignedObjectArray.40 = type <{ %class.btAlignedAllocator.41, [3 x i8], i32, i32, [4 x i8], ptr, i8, [7 x i8] }>
%class.btAlignedAllocator.41 = type { i8 }
%class.btHashMap = type { %class.btAlignedObjectArray.44, %class.btAlignedObjectArray.44, %class.btAlignedObjectArray.4, %class.btAlignedObjectArray.48 }
%class.btAlignedObjectArray.44 = type <{ %class.btAlignedAllocator.45, [3 x i8], i32, i32, [4 x i8], ptr, i8, [7 x i8] }>
%class.btAlignedAllocator.45 = type { i8 }
%class.btAlignedObjectArray.48 = type <{ %class.btAlignedAllocator.49, [3 x i8], i32, i32, [4 x i8], ptr, i8, [7 x i8] }>
%class.btAlignedAllocator.49 = type { i8 }
%class.btHashMap.52 = type { %class.btAlignedObjectArray.44, %class.btAlignedObjectArray.44, %class.btAlignedObjectArray.8, %class.btAlignedObjectArray.48 }
%class.btHashMap.53 = type { %class.btAlignedObjectArray.44, %class.btAlignedObjectArray.44, %class.btAlignedObjectArray, %class.btAlignedObjectArray.54 }
%class.btAlignedObjectArray.54 = type <{ %class.btAlignedAllocator.55, [3 x i8], i32, i32, [4 x i8], ptr, i8, [7 x i8] }>
%class.btAlignedAllocator.55 = type { i8 }
%class.btHashMap.58 = type { %class.btAlignedObjectArray.44, %class.btAlignedObjectArray.44, %class.btAlignedObjectArray.0, %class.btAlignedObjectArray.54 }
%class.btHashMap.59 = type { %class.btAlignedObjectArray.44, %class.btAlignedObjectArray.44, %class.btAlignedObjectArray.60, %class.btAlignedObjectArray.48 }
%class.btAlignedObjectArray.60 = type <{ %class.btAlignedAllocator.61, [3 x i8], i32, i32, [4 x i8], ptr, i8, [7 x i8] }>
%class.btAlignedAllocator.61 = type { i8 }
%class.btHashMap.64 = type { %class.btAlignedObjectArray.44, %class.btAlignedObjectArray.44, %class.btAlignedObjectArray, %class.btAlignedObjectArray.48 }
%class.btHashMap.65 = type { %class.btAlignedObjectArray.44, %class.btAlignedObjectArray.44, %class.btAlignedObjectArray.0, %class.btAlignedObjectArray.48 }

; Function Attrs: mustprogress uwtable
define linkonce_odr dso_local void @_ZN18btAlignedAllocatorIP16btCollisionShapeLj16EE10deallocateEPS1_(ptr noundef nonnull align 1 dereferenceable(1) %this, ptr noundef %ptr) #2 comdat align 2 {
entry:
  %this.addr = alloca ptr, align 8
  %ptr.addr = alloca ptr, align 8
  store ptr %this, ptr %this.addr, align 8
  store ptr %ptr, ptr %ptr.addr, align 8
  %0 = load ptr, ptr %ptr.addr, align 8
  call void @_Z21btAlignedFreeInternalPv(ptr noundef %0)
  ret void
}

; Function Attrs: mustprogress uwtable
define linkonce_odr dso_local noundef ptr @_ZN18btAlignedAllocatorIP16btCollisionShapeLj16EE8allocateEiPPKS1_(ptr noundef nonnull align 1 dereferenceable(1) %this, i32 noundef %n, ptr noundef %hint) #2 comdat align 2 {
entry:
  %this.addr = alloca ptr, align 8
  %n.addr = alloca i32, align 4
  %hint.addr = alloca ptr, align 8
  store ptr %this, ptr %this.addr, align 8
  store i32 %n, ptr %n.addr, align 4
  store ptr %hint, ptr %hint.addr, align 8
  %0 = load i32, ptr %n.addr, align 4
  %conv = sext i32 %0 to i64
  %mul = mul i64 8, %conv
  %call = call noundef ptr @_Z22btAlignedAllocInternalmi(i64 noundef %mul, i32 noundef 16)
  ret ptr %call
}

; Function Attrs: mustprogress uwtable
define linkonce_odr dso_local void @_ZN20btAlignedObjectArrayIP16btCollisionShapeE10deallocateEv(ptr noundef nonnull align 8 dereferenceable(25) %this) #2 comdat align 2 {
entry:
  %this.addr = alloca ptr, align 8
  store ptr %this, ptr %this.addr, align 8
  %this1 = load ptr, ptr %this.addr, align 8
  %m_data = getelementptr inbounds %class.btAlignedObjectArray, ptr %this1, i32 0, i32 5
  %0 = load ptr, ptr %m_data, align 8
  %tobool = icmp ne ptr %0, null
  br i1 %tobool, label %if.then, label %if.end6

if.then:                                          ; preds = %entry
  %m_ownsMemory = getelementptr inbounds %class.btAlignedObjectArray, ptr %this1, i32 0, i32 6
  %1 = load i8, ptr %m_ownsMemory, align 8
  %tobool2 = trunc i8 %1 to i1
  br i1 %tobool2, label %if.then3, label %if.end

if.then3:                                         ; preds = %if.then
  %m_allocator = getelementptr inbounds %class.btAlignedObjectArray, ptr %this1, i32 0, i32 0
  %m_data4 = getelementptr inbounds %class.btAlignedObjectArray, ptr %this1, i32 0, i32 5
  %2 = load ptr, ptr %m_data4, align 8
  call void @_ZN18btAlignedAllocatorIP16btCollisionShapeLj16EE10deallocateEPS1_(ptr noundef nonnull align 1 dereferenceable(1) %m_allocator, ptr noundef %2)
  br label %if.end

if.end:                                           ; preds = %if.then3, %if.then
  %m_data5 = getelementptr inbounds %class.btAlignedObjectArray, ptr %this1, i32 0, i32 5
  store ptr null, ptr %m_data5, align 8
  br label %if.end6

if.end6:                                          ; preds = %if.end, %entry
  ret void
}

; Function Attrs: mustprogress nounwind uwtable
define linkonce_odr dso_local void @_ZN20btAlignedObjectArrayIP16btCollisionShapeE7destroyEii(ptr noundef nonnull align 8 dereferenceable(25) %this, i32 noundef %first, i32 noundef %last) #1 comdat align 2 {
entry:
  %this.addr = alloca ptr, align 8
  %first.addr = alloca i32, align 4
  %last.addr = alloca i32, align 4
  %i = alloca i32, align 4
  store ptr %this, ptr %this.addr, align 8
  store i32 %first, ptr %first.addr, align 4
  store i32 %last, ptr %last.addr, align 4
  %0 = load i32, ptr %first.addr, align 4
  store i32 %0, ptr %i, align 4
  br label %for.cond

for.cond:                                         ; preds = %for.inc, %entry
  %1 = load i32, ptr %i, align 4
  %2 = load i32, ptr %last.addr, align 4
  %cmp = icmp slt i32 %1, %2
  br i1 %cmp, label %for.body, label %for.end

for.body:                                         ; preds = %for.cond
  br label %for.inc

for.inc:                                          ; preds = %for.body
  %3 = load i32, ptr %i, align 4
  %inc = add nsw i32 %3, 1
  store i32 %inc, ptr %i, align 4
  br label %for.cond, !llvm.loop !101

for.end:                                          ; preds = %for.cond
  ret void
}

; Function Attrs: mustprogress nounwind uwtable
define linkonce_odr dso_local void @_ZNK20btAlignedObjectArrayIP16btCollisionShapeE4copyEiiPS1_(ptr noundef nonnull align 8 dereferenceable(25) %this, i32 noundef %start, i32 noundef %end, ptr noundef %dest) #1 comdat align 2 {
entry:
  %this.addr = alloca ptr, align 8
  %start.addr = alloca i32, align 4
  %end.addr = alloca i32, align 4
  %dest.addr = alloca ptr, align 8
  %i = alloca i32, align 4
  store ptr %this, ptr %this.addr, align 8
  store i32 %start, ptr %start.addr, align 4
  store i32 %end, ptr %end.addr, align 4
  store ptr %dest, ptr %dest.addr, align 8
  %this1 = load ptr, ptr %this.addr, align 8
  %0 = load i32, ptr %start.addr, align 4
  store i32 %0, ptr %i, align 4
  br label %for.cond

for.cond:                                         ; preds = %for.inc, %entry
  %1 = load i32, ptr %i, align 4
  %2 = load i32, ptr %end.addr, align 4
  %cmp = icmp slt i32 %1, %2
  br i1 %cmp, label %for.body, label %for.end

for.body:                                         ; preds = %for.cond
  %3 = load ptr, ptr %dest.addr, align 8
  %4 = load i32, ptr %i, align 4
  %idxprom = sext i32 %4 to i64
  %arrayidx = getelementptr inbounds ptr, ptr %3, i64 %idxprom
  %m_data = getelementptr inbounds %class.btAlignedObjectArray, ptr %this1, i32 0, i32 5
  %5 = load ptr, ptr %m_data, align 8
  %6 = load i32, ptr %i, align 4
  %idxprom2 = sext i32 %6 to i64
  %arrayidx3 = getelementptr inbounds ptr, ptr %5, i64 %idxprom2
  %7 = load ptr, ptr %arrayidx3, align 8
  store ptr %7, ptr %arrayidx, align 8
  br label %for.inc

for.inc:                                          ; preds = %for.body
  %8 = load i32, ptr %i, align 4
  %inc = add nsw i32 %8, 1
  store i32 %inc, ptr %i, align 4
  br label %for.cond, !llvm.loop !122

for.end:                                          ; preds = %for.cond
  ret void
}

; Function Attrs: mustprogress uwtable
define linkonce_odr dso_local noundef ptr @_ZN20btAlignedObjectArrayIP16btCollisionShapeE8allocateEi(ptr noundef nonnull align 8 dereferenceable(25) %this, i32 noundef %size) #2 comdat align 2 {
entry:
  %retval = alloca ptr, align 8
  %this.addr = alloca ptr, align 8
  %size.addr = alloca i32, align 4
  store ptr %this, ptr %this.addr, align 8
  store i32 %size, ptr %size.addr, align 4
  %this1 = load ptr, ptr %this.addr, align 8
  %0 = load i32, ptr %size.addr, align 4
  %tobool = icmp ne i32 %0, 0
  br i1 %tobool, label %if.then, label %if.end

if.then:                                          ; preds = %entry
  %m_allocator = getelementptr inbounds %class.btAlignedObjectArray, ptr %this1, i32 0, i32 0
  %1 = load i32, ptr %size.addr, align 4
  %call = call noundef ptr @_ZN18btAlignedAllocatorIP16btCollisionShapeLj16EE8allocateEiPPKS1_(ptr noundef nonnull align 1 dereferenceable(1) %m_allocator, i32 noundef %1, ptr noundef null)
  store ptr %call, ptr %retval, align 8
  br label %return

if.end:                                           ; preds = %entry
  store ptr null, ptr %retval, align 8
  br label %return

return:                                           ; preds = %if.end, %if.then
  %2 = load ptr, ptr %retval, align 8
  ret ptr %2
}

; Function Attrs: mustprogress uwtable
define linkonce_odr dso_local void @_ZN20btAlignedObjectArrayIP16btCollisionShapeE7reserveEi(ptr noundef nonnull align 8 dereferenceable(25) %this, i32 noundef %_Count) #2 comdat align 2 {
entry:
  %this.addr = alloca ptr, align 8
  %_Count.addr = alloca i32, align 4
  %s = alloca ptr, align 8
  store ptr %this, ptr %this.addr, align 8
  store i32 %_Count, ptr %_Count.addr, align 4
  %this1 = load ptr, ptr %this.addr, align 8
  %call = call noundef i32 @_ZNK20btAlignedObjectArrayIP16btCollisionShapeE8capacityEv(ptr noundef nonnull align 8 dereferenceable(25) %this1)
  %0 = load i32, ptr %_Count.addr, align 4
  %cmp = icmp slt i32 %call, %0
  br i1 %cmp, label %if.then, label %if.end

if.then:                                          ; preds = %entry
  %1 = load i32, ptr %_Count.addr, align 4
  %call2 = call noundef ptr @_ZN20btAlignedObjectArrayIP16btCollisionShapeE8allocateEi(ptr noundef nonnull align 8 dereferenceable(25) %this1, i32 noundef %1)
  store ptr %call2, ptr %s, align 8
  %call3 = call noundef i32 @_ZNK20btAlignedObjectArrayIP16btCollisionShapeE4sizeEv(ptr noundef nonnull align 8 dereferenceable(25) %this1)
  %2 = load ptr, ptr %s, align 8
  call void @_ZNK20btAlignedObjectArrayIP16btCollisionShapeE4copyEiiPS1_(ptr noundef nonnull align 8 dereferenceable(25) %this1, i32 noundef 0, i32 noundef %call3, ptr noundef %2)
  %call4 = call noundef i32 @_ZNK20btAlignedObjectArrayIP16btCollisionShapeE4sizeEv(ptr noundef nonnull align 8 dereferenceable(25) %this1)
  call void @_ZN20btAlignedObjectArrayIP16btCollisionShapeE7destroyEii(ptr noundef nonnull align 8 dereferenceable(25) %this1, i32 noundef 0, i32 noundef %call4)
  call void @_ZN20btAlignedObjectArrayIP16btCollisionShapeE10deallocateEv(ptr noundef nonnull align 8 dereferenceable(25) %this1)
  %m_ownsMemory = getelementptr inbounds %class.btAlignedObjectArray, ptr %this1, i32 0, i32 6
  store i8 1, ptr %m_ownsMemory, align 8
  %3 = load ptr, ptr %s, align 8
  %m_data = getelementptr inbounds %class.btAlignedObjectArray, ptr %this1, i32 0, i32 5
  store ptr %3, ptr %m_data, align 8
  %4 = load i32, ptr %_Count.addr, align 4
  %m_capacity = getelementptr inbounds %class.btAlignedObjectArray, ptr %this1, i32 0, i32 3
  store i32 %4, ptr %m_capacity, align 8
  br label %if.end

if.end:                                           ; preds = %if.then, %entry
  ret void
}

; Function Attrs: mustprogress nounwind uwtable
define linkonce_odr dso_local noundef i32 @_ZN20btAlignedObjectArrayIP16btCollisionShapeE9allocSizeEi(ptr noundef nonnull align 8 dereferenceable(25) %this, i32 noundef %size) #1 comdat align 2 {
entry:
  %this.addr = alloca ptr, align 8
  %size.addr = alloca i32, align 4
  store ptr %this, ptr %this.addr, align 8
  store i32 %size, ptr %size.addr, align 4
  %0 = load i32, ptr %size.addr, align 4
  %tobool = icmp ne i32 %0, 0
  br i1 %tobool, label %cond.true, label %cond.false

cond.true:                                        ; preds = %entry
  %1 = load i32, ptr %size.addr, align 4
  %mul = mul nsw i32 %1, 2
  br label %cond.end

cond.false:                                       ; preds = %entry
  br label %cond.end

cond.end:                                         ; preds = %cond.false, %cond.true
  %cond = phi i32 [ %mul, %cond.true ], [ 1, %cond.false ]
  ret i32 %cond
}

; Function Attrs: mustprogress nounwind uwtable
define linkonce_odr dso_local noundef i32 @_ZNK20btAlignedObjectArrayIP16btCollisionShapeE8capacityEv(ptr noundef nonnull align 8 dereferenceable(25) %this) #1 comdat align 2 {
entry:
  %this.addr = alloca ptr, align 8
  store ptr %this, ptr %this.addr, align 8
  %this1 = load ptr, ptr %this.addr, align 8
  %m_capacity = getelementptr inbounds %class.btAlignedObjectArray, ptr %this1, i32 0, i32 3
  %0 = load i32, ptr %m_capacity, align 8
  ret i32 %0
}

; Function Attrs: mustprogress nounwind uwtable
define linkonce_odr dso_local noundef i32 @_ZNK20btAlignedObjectArrayIP16btCollisionShapeE4sizeEv(ptr noundef nonnull align 8 dereferenceable(25) %this) #1 comdat align 2 {
entry:
  %this.addr = alloca ptr, align 8
  store ptr %this, ptr %this.addr, align 8
  %this1 = load ptr, ptr %this.addr, align 8
  %m_size = getelementptr inbounds %class.btAlignedObjectArray, ptr %this1, i32 0, i32 2
  %0 = load i32, ptr %m_size, align 4
  ret i32 %0
}

; Function Attrs: mustprogress nounwind uwtable
define linkonce_odr dso_local void @_ZN17btConvexHullShapedlEPv(ptr noundef %ptr) #1 comdat align 2 personality ptr @__gxx_personality_v0 {
entry:
  %ptr.addr = alloca ptr, align 8
  store ptr %ptr, ptr %ptr.addr, align 8
  %0 = load ptr, ptr %ptr.addr, align 8
  invoke void @_Z21btAlignedFreeInternalPv(ptr noundef %0)
          to label %invoke.cont unwind label %terminate.lpad

invoke.cont:                                      ; preds = %entry
  ret void

terminate.lpad:                                   ; preds = %entry
  %1 = landingpad { ptr, i32 }
          catch ptr null
  %2 = extractvalue { ptr, i32 } %1, 0
  call void @__clang_call_terminate(ptr %2) #14
  unreachable
}

; Function Attrs: mustprogress uwtable
define linkonce_odr dso_local void @_ZN20btAlignedObjectArrayIP16btCollisionShapeE9push_backERKS1_(ptr noundef nonnull align 8 dereferenceable(25) %this, ptr noundef nonnull align 8 dereferenceable(8) %_Val) #2 comdat align 2 {
entry:
  %this.addr = alloca ptr, align 8
  %_Val.addr = alloca ptr, align 8
  %sz = alloca i32, align 4
  store ptr %this, ptr %this.addr, align 8
  store ptr %_Val, ptr %_Val.addr, align 8
  %this1 = load ptr, ptr %this.addr, align 8
  %call = call noundef i32 @_ZNK20btAlignedObjectArrayIP16btCollisionShapeE4sizeEv(ptr noundef nonnull align 8 dereferenceable(25) %this1)
  store i32 %call, ptr %sz, align 4
  %0 = load i32, ptr %sz, align 4
  %call2 = call noundef i32 @_ZNK20btAlignedObjectArrayIP16btCollisionShapeE8capacityEv(ptr noundef nonnull align 8 dereferenceable(25) %this1)
  %cmp = icmp eq i32 %0, %call2
  br i1 %cmp, label %if.then, label %if.end

if.then:                                          ; preds = %entry
  %call3 = call noundef i32 @_ZNK20btAlignedObjectArrayIP16btCollisionShapeE4sizeEv(ptr noundef nonnull align 8 dereferenceable(25) %this1)
  %call4 = call noundef i32 @_ZN20btAlignedObjectArrayIP16btCollisionShapeE9allocSizeEi(ptr noundef nonnull align 8 dereferenceable(25) %this1, i32 noundef %call3)
  call void @_ZN20btAlignedObjectArrayIP16btCollisionShapeE7reserveEi(ptr noundef nonnull align 8 dereferenceable(25) %this1, i32 noundef %call4)
  br label %if.end

if.end:                                           ; preds = %if.then, %entry
  %m_data = getelementptr inbounds %class.btAlignedObjectArray, ptr %this1, i32 0, i32 5
  %1 = load ptr, ptr %m_data, align 8
  %m_size = getelementptr inbounds %class.btAlignedObjectArray, ptr %this1, i32 0, i32 2
  %2 = load i32, ptr %m_size, align 4
  %idxprom = sext i32 %2 to i64
  %arrayidx = getelementptr inbounds ptr, ptr %1, i64 %idxprom
  %3 = load ptr, ptr %_Val.addr, align 8
  %4 = load ptr, ptr %3, align 8
  store ptr %4, ptr %arrayidx, align 8
  %m_size5 = getelementptr inbounds %class.btAlignedObjectArray, ptr %this1, i32 0, i32 2
  %5 = load i32, ptr %m_size5, align 4
  %inc = add nsw i32 %5, 1
  store i32 %inc, ptr %m_size5, align 4
  ret void
}

; Function Attrs: mustprogress uwtable
define linkonce_odr dso_local noundef ptr @_ZN17btConvexHullShapenwEm(i64 noundef %sizeInBytes) #2 comdat align 2 {
entry:
  %sizeInBytes.addr = alloca i64, align 8
  store i64 %sizeInBytes, ptr %sizeInBytes.addr, align 8
  %0 = load i64, ptr %sizeInBytes.addr, align 8
  %call = call noundef ptr @_Z22btAlignedAllocInternalmi(i64 noundef %0, i32 noundef 16)
  ret ptr %call
}

; Function Attrs: mustprogress uwtable
define dso_local noundef ptr @_ZN24btCollisionWorldImporter21createConvexHullShapeEv(ptr noundef nonnull align 8 dereferenceable(1336) %this) unnamed_addr #2 align 2 personality ptr @__gxx_personality_v0 {
entry:
  %this.addr = alloca ptr, align 8
  %shape = alloca ptr, align 8
  %exn.slot = alloca ptr, align 8
  %ehselector.slot = alloca i32, align 4
  %ref.tmp = alloca ptr, align 8
  store ptr %this, ptr %this.addr, align 8
  %this1 = load ptr, ptr %this.addr, align 8
  %call = call noundef ptr @_ZN17btConvexHullShapenwEm(i64 noundef 152)
  invoke void @_ZN17btConvexHullShapeC1EPKfii(ptr noundef nonnull align 8 dereferenceable(152) %call, ptr noundef null, i32 noundef 0, i32 noundef 16)
          to label %invoke.cont unwind label %lpad

invoke.cont:                                      ; preds = %entry
  store ptr %call, ptr %shape, align 8
  %m_allocatedCollisionShapes = getelementptr inbounds %class.btCollisionWorldImporter, ptr %this1, i32 0, i32 4
  %0 = load ptr, ptr %shape, align 8
  store ptr %0, ptr %ref.tmp, align 8
  call void @_ZN20btAlignedObjectArrayIP16btCollisionShapeE9push_backERKS1_(ptr noundef nonnull align 8 dereferenceable(25) %m_allocatedCollisionShapes, ptr noundef nonnull align 8 dereferenceable(8) %ref.tmp)
  %1 = load ptr, ptr %shape, align 8
  ret ptr %1

lpad:                                             ; preds = %entry
  %2 = landingpad { ptr, i32 }
          cleanup
  %3 = extractvalue { ptr, i32 } %2, 0
  store ptr %3, ptr %exn.slot, align 8
  %4 = extractvalue { ptr, i32 } %2, 1
  store i32 %4, ptr %ehselector.slot, align 4
  call void @_ZN17btConvexHullShapedlEPv(ptr noundef %call) #13
  br label %eh.resume

eh.resume:                                        ; preds = %lpad
  %exn = load ptr, ptr %exn.slot, align 8
  %sel = load i32, ptr %ehselector.slot, align 4
  %lpad.val = insertvalue { ptr, i32 } poison, ptr %exn, 0
  %lpad.val2 = insertvalue { ptr, i32 } %lpad.val, i32 %sel, 1
  resume { ptr, i32 } %lpad.val2
}